; Function Attrs: mustprogress nounwind uwtable
define hidden void @_ZN17StackWatermarkSet17finish_processingEP10JavaThreadPv18StackWatermarkKind(ptr nocapture noundef readonly %0, ptr noundef %1, i32 noundef %2) local_unnamed_addr #1 align 2 {
  %4 = getelementptr inbounds i8, ptr %0, i64 1376
  %.07.i = load ptr, ptr %4, align 8
  %.not8.i = icmp eq ptr %.07.i, null
  br i1 %.not8.i, label %_ZN17StackWatermarkSet3getEP10JavaThread18StackWatermarkKind.exit.thread, label %.lr.ph.i

.lr.ph.i:                                         ; preds = %3, %8
  %.09.i = phi ptr [ %.0.i, %8 ], [ %.07.i, %3 ]
  %5 = getelementptr inbounds i8, ptr %.09.i, i64 152
  %6 = load i32, ptr %5, align 8
  %7 = icmp eq i32 %6, %2
  br i1 %7, label %_ZN17StackWatermarkSet3getEP10JavaThread18StackWatermarkKind.exit, label %8

8:                                                ; preds = %.lr.ph.i
  %9 = getelementptr inbounds i8, ptr %.09.i, i64 24
  %.0.i = load ptr, ptr %9, align 8
  %.not.i = icmp eq ptr %.0.i, null
  br i1 %.not.i, label %_ZN17StackWatermarkSet3getEP10JavaThread18StackWatermarkKind.exit.thread, label %.lr.ph.i, !llvm.loop !17

_ZN17StackWatermarkSet3getEP10JavaThread18StackWatermarkKind.exit: ; preds = %.lr.ph.i
  tail call void @_ZN14StackWatermark17finish_processingEPv(ptr noundef nonnull align 8 dereferenceable(176) %.09.i, ptr noundef %1) #10
  br label %_ZN17StackWatermarkSet3getEP10JavaThread18StackWatermarkKind.exit.thread

_ZN17StackWatermarkSet3getEP10JavaThread18StackWatermarkKind.exit.thread: ; preds = %8, %3, %_ZN17StackWatermarkSet3getEP10JavaThread18StackWatermarkKind.exit
  ret void
}